; Function Attrs: nounwind uwtable
define void @Abc_FrameDeleteAllNetworks(ptr noundef %0) local_unnamed_addr #1 {
  %2 = getelementptr inbounds nuw i8, ptr %0, i64 48
  %3 = load ptr, ptr %2, align 8, !tbaa !96
  %.not = icmp eq ptr %3, null
  br i1 %.not, label %._crit_edge, label %.lr.ph

.lr.ph:                                           ; preds = %1, %.lr.ph
  %.0.val.sink = phi ptr [ %.0.val, %.lr.ph ], [ %3, %1 ]
  %4 = getelementptr i8, ptr %.0.val.sink, i64 160
  %.0.val = load ptr, ptr %4, align 8, !tbaa !97
  tail call void @Abc_NtkDelete(ptr noundef nonnull %.0.val.sink) #20
  %.not17 = icmp eq ptr %.0.val, null
  br i1 %.not17, label %._crit_edge, label %.lr.ph, !llvm.loop !105

._crit_edge:                                      ; preds = %.lr.ph, %1
  store ptr null, ptr %2, align 8, !tbaa !96
  %5 = getelementptr inbounds nuw i8, ptr %0, i64 288
  tail call void @Gia_ManStopP(ptr noundef nonnull %5) #20
  %6 = getelementptr inbounds nuw i8, ptr %0, i64 296
  tail call void @Gia_ManStopP(ptr noundef nonnull %6) #20
  %7 = getelementptr inbounds nuw i8, ptr %0, i64 304
  tail call void @Gia_ManStopP(ptr noundef nonnull %7) #20
  %8 = getelementptr inbounds nuw i8, ptr %0, i64 312
  tail call void @Gia_ManStopP(ptr noundef nonnull %8) #20
  %9 = getelementptr inbounds nuw i8, ptr %0, i64 320
  tail call void @Gia_ManStopP(ptr noundef nonnull %9) #20
  ret void
}